target datalayout = "e-m:e-p270:32:32-p271:32:32-p272:64:64-i64:64-i128:128-f80:128-n8:16:32:64-S128"
target triple = "x86_64-pc-linux-gnu"

%struct.mbedtls_dhm_context = type { %struct.mbedtls_mpi, %struct.mbedtls_mpi, %struct.mbedtls_mpi, %struct.mbedtls_mpi, %struct.mbedtls_mpi, %struct.mbedtls_mpi, %struct.mbedtls_mpi, %struct.mbedtls_mpi, %struct.mbedtls_mpi, %struct.mbedtls_mpi }
%struct.mbedtls_mpi = type { ptr, i16, i16 }

; Function Attrs: nounwind uwtable
define hidden void @mbedtls_dhm_free(ptr noundef %0) #0 {
  %2 = alloca ptr, align 8
  store ptr %0, ptr %2, align 8, !tbaa !3
  %3 = load ptr, ptr %2, align 8, !tbaa !3
  %4 = icmp eq ptr %3, null
  br i1 %4, label %5, label %6

5:                                                ; preds = %1
  br label %28

6:                                                ; preds = %1
  %7 = load ptr, ptr %2, align 8, !tbaa !3
  %8 = getelementptr inbounds nuw %struct.mbedtls_dhm_context, ptr %7, i32 0, i32 9
  call void @mbedtls_mpi_free(ptr noundef %8)
  %9 = load ptr, ptr %2, align 8, !tbaa !3
  %10 = getelementptr inbounds nuw %struct.mbedtls_dhm_context, ptr %9, i32 0, i32 8
  call void @mbedtls_mpi_free(ptr noundef %10)
  %11 = load ptr, ptr %2, align 8, !tbaa !3
  %12 = getelementptr inbounds nuw %struct.mbedtls_dhm_context, ptr %11, i32 0, i32 7
  call void @mbedtls_mpi_free(ptr noundef %12)
  %13 = load ptr, ptr %2, align 8, !tbaa !3
  %14 = getelementptr inbounds nuw %struct.mbedtls_dhm_context, ptr %13, i32 0, i32 6
  call void @mbedtls_mpi_free(ptr noundef %14)
  %15 = load ptr, ptr %2, align 8, !tbaa !3
  %16 = getelementptr inbounds nuw %struct.mbedtls_dhm_context, ptr %15, i32 0, i32 5
  call void @mbedtls_mpi_free(ptr noundef %16)
  %17 = load ptr, ptr %2, align 8, !tbaa !3
  %18 = getelementptr inbounds nuw %struct.mbedtls_dhm_context, ptr %17, i32 0, i32 4
  call void @mbedtls_mpi_free(ptr noundef %18)
  %19 = load ptr, ptr %2, align 8, !tbaa !3
  %20 = getelementptr inbounds nuw %struct.mbedtls_dhm_context, ptr %19, i32 0, i32 3
  call void @mbedtls_mpi_free(ptr noundef %20)
  %21 = load ptr, ptr %2, align 8, !tbaa !3
  %22 = getelementptr inbounds nuw %struct.mbedtls_dhm_context, ptr %21, i32 0, i32 2
  call void @mbedtls_mpi_free(ptr noundef %22)
  %23 = load ptr, ptr %2, align 8, !tbaa !3
  %24 = getelementptr inbounds nuw %struct.mbedtls_dhm_context, ptr %23, i32 0, i32 1
  call void @mbedtls_mpi_free(ptr noundef %24)
  %25 = load ptr, ptr %2, align 8, !tbaa !3
  %26 = getelementptr inbounds nuw %struct.mbedtls_dhm_context, ptr %25, i32 0, i32 0
  call void @mbedtls_mpi_free(ptr noundef %26)
  %27 = load ptr, ptr %2, align 8, !tbaa !3
  call void @mbedtls_platform_zeroize(ptr noundef %27, i64 noundef 160)
  br label %28

28:                                               ; preds = %6, %5
  ret void
}