; Function Attrs: nounwind uwtable
define hidden void @mbedtls_dhm_free(ptr noundef %0) local_unnamed_addr #2 {
  %2 = icmp eq ptr %0, null
  br i1 %2, label %13, label %3

3:                                                ; preds = %1
  %4 = getelementptr inbounds nuw i8, ptr %0, i64 144
  tail call void @mbedtls_mpi_free(ptr noundef nonnull %4) #10
  %5 = getelementptr inbounds nuw i8, ptr %0, i64 128
  tail call void @mbedtls_mpi_free(ptr noundef nonnull %5) #10
  %6 = getelementptr inbounds nuw i8, ptr %0, i64 112
  tail call void @mbedtls_mpi_free(ptr noundef nonnull %6) #10
  %7 = getelementptr inbounds nuw i8, ptr %0, i64 96
  tail call void @mbedtls_mpi_free(ptr noundef nonnull %7) #10
  %8 = getelementptr inbounds nuw i8, ptr %0, i64 80
  tail call void @mbedtls_mpi_free(ptr noundef nonnull %8) #10
  %9 = getelementptr inbounds nuw i8, ptr %0, i64 64
  tail call void @mbedtls_mpi_free(ptr noundef nonnull %9) #10
  %10 = getelementptr inbounds nuw i8, ptr %0, i64 48
  tail call void @mbedtls_mpi_free(ptr noundef nonnull %10) #10
  %11 = getelementptr inbounds nuw i8, ptr %0, i64 32
  tail call void @mbedtls_mpi_free(ptr noundef nonnull %11) #10
  %12 = getelementptr inbounds nuw i8, ptr %0, i64 16
  tail call void @mbedtls_mpi_free(ptr noundef nonnull %12) #10
  tail call void @mbedtls_mpi_free(ptr noundef nonnull %0) #10
  tail call void @mbedtls_platform_zeroize(ptr noundef nonnull %0, i64 noundef 160) #10
  br label %13

13:                                               ; preds = %1, %3
  ret void
}